; Function Attrs: mustprogress uwtable
define void @_ZN7Imf_3_215OpaqueAttribute13copyValueFromERKNS_9AttributeE(ptr noundef nonnull align 8 dereferenceable(64) %this, ptr noundef nonnull align 8 dereferenceable(8) %other) unnamed_addr #3 align 2 personality ptr @__gxx_personality_v0 {
entry:
  %_iex_throw_s = alloca %"class.std::__cxx11::basic_stringstream", align 8
  %0 = tail call ptr @__dynamic_cast(ptr nonnull %other, ptr nonnull @_ZTIN7Imf_3_29AttributeE, ptr nonnull @_ZTIN7Imf_3_215OpaqueAttributeE, i64 0) #15
  %cmp = icmp eq ptr %0, null
  br i1 %cmp, label %do.body, label %lor.lhs.false

lor.lhs.false:                                    ; preds = %entry
  %_typeName = getelementptr inbounds i8, ptr %this, i64 8
  %_typeName2 = getelementptr inbounds i8, ptr %0, i64 8
  %call.i.i = tail call noundef i64 @_ZNKSt7__cxx1112basic_stringIcSt11char_traitsIcESaIcEE4sizeEv(ptr noundef nonnull align 8 dereferenceable(32) %_typeName) #15
  %call1.i.i = tail call noundef i64 @_ZNKSt7__cxx1112basic_stringIcSt11char_traitsIcESaIcEE4sizeEv(ptr noundef nonnull align 8 dereferenceable(32) %_typeName2) #15
  %cmp.i.i = icmp eq i64 %call.i.i, %call1.i.i
  br i1 %cmp.i.i, label %land.rhs.i.i, label %do.body

land.rhs.i.i:                                     ; preds = %lor.lhs.false
  %call2.i.i = tail call noundef ptr @_ZNKSt7__cxx1112basic_stringIcSt11char_traitsIcESaIcEE4dataEv(ptr noundef nonnull align 8 dereferenceable(32) %_typeName) #15
  %call3.i.i = tail call noundef ptr @_ZNKSt7__cxx1112basic_stringIcSt11char_traitsIcESaIcEE4dataEv(ptr noundef nonnull align 8 dereferenceable(32) %_typeName2) #15
  %call4.i.i = tail call noundef i64 @_ZNKSt7__cxx1112basic_stringIcSt11char_traitsIcESaIcEE4sizeEv(ptr noundef nonnull align 8 dereferenceable(32) %_typeName) #15
  %cmp.i.i.i = icmp eq i64 %call4.i.i, 0
  br i1 %cmp.i.i.i, label %if.end, label %_ZStneIcSt11char_traitsIcESaIcEEbRKNSt7__cxx1112basic_stringIT_T0_T1_EESA_.exit

_ZStneIcSt11char_traitsIcESaIcEEbRKNSt7__cxx1112basic_stringIT_T0_T1_EESA_.exit: ; preds = %land.rhs.i.i
  %bcmp.i.i = tail call i32 @bcmp(ptr %call2.i.i, ptr %call3.i.i, i64 %call4.i.i)
  %.not = icmp eq i32 %bcmp.i.i, 0
  br i1 %.not, label %if.end, label %do.body

do.body:                                          ; preds = %lor.lhs.false, %entry, %_ZStneIcSt11char_traitsIcESaIcEEbRKNSt7__cxx1112basic_stringIT_T0_T1_EESA_.exit
  tail call void @_Z13iex_debugTrapv()
  call void @_ZNSt7__cxx1118basic_stringstreamIcSt11char_traitsIcESaIcEEC1Ev(ptr noundef nonnull align 8 dereferenceable(128) %_iex_throw_s)
  %add.ptr = getelementptr inbounds i8, ptr %_iex_throw_s, i64 16
  %call3 = invoke noundef nonnull align 8 dereferenceable(8) ptr @_ZStlsISt11char_traitsIcEERSt13basic_ostreamIcT_ES5_PKc(ptr noundef nonnull align 8 dereferenceable(8) %add.ptr, ptr noundef nonnull @.str)
          to label %invoke.cont unwind label %lpad

invoke.cont:                                      ; preds = %do.body
  %vtable = load ptr, ptr %other, align 8
  %vfn = getelementptr inbounds i8, ptr %vtable, i64 16
  %1 = load ptr, ptr %vfn, align 8
  %call5 = invoke noundef ptr %1(ptr noundef nonnull align 8 dereferenceable(8) %other)
          to label %invoke.cont4 unwind label %lpad

invoke.cont4:                                     ; preds = %invoke.cont
  %call7 = invoke noundef nonnull align 8 dereferenceable(8) ptr @_ZStlsISt11char_traitsIcEERSt13basic_ostreamIcT_ES5_PKc(ptr noundef nonnull align 8 dereferenceable(8) %call3, ptr noundef %call5)
          to label %invoke.cont6 unwind label %lpad

invoke.cont6:                                     ; preds = %invoke.cont4
  %call9 = invoke noundef nonnull align 8 dereferenceable(8) ptr @_ZStlsISt11char_traitsIcEERSt13basic_ostreamIcT_ES5_PKc(ptr noundef nonnull align 8 dereferenceable(8) %call7, ptr noundef nonnull @.str.1)
          to label %invoke.cont8 unwind label %lpad

invoke.cont8:                                     ; preds = %invoke.cont6
  %_typeName10 = getelementptr inbounds i8, ptr %this, i64 8
  %call12 = invoke noundef nonnull align 8 dereferenceable(8) ptr @_ZStlsIcSt11char_traitsIcESaIcEERSt13basic_ostreamIT_T0_ES7_RKNSt7__cxx1112basic_stringIS4_S5_T1_EE(ptr noundef nonnull align 8 dereferenceable(8) %call9, ptr noundef nonnull align 8 dereferenceable(32) %_typeName10)
          to label %invoke.cont11 unwind label %lpad

invoke.cont11:                                    ; preds = %invoke.cont8
  %call14 = invoke noundef nonnull align 8 dereferenceable(8) ptr @_ZStlsISt11char_traitsIcEERSt13basic_ostreamIcT_ES5_PKc(ptr noundef nonnull align 8 dereferenceable(8) %call12, ptr noundef nonnull @.str.2)
          to label %invoke.cont13 unwind label %lpad

invoke.cont13:                                    ; preds = %invoke.cont11
  %exception = call ptr @__cxa_allocate_exception(i64 72) #15
  invoke void @_ZN7Iex_3_27TypeExcC1ERNSt7__cxx1118basic_stringstreamIcSt11char_traitsIcESaIcEEE(ptr noundef nonnull align 8 dereferenceable(72) %exception, ptr noundef nonnull align 8 dereferenceable(128) %_iex_throw_s)
          to label %invoke.cont16 unwind label %lpad15

invoke.cont16:                                    ; preds = %invoke.cont13
  invoke void @__cxa_throw(ptr nonnull %exception, ptr nonnull @_ZTIN7Iex_3_27TypeExcE, ptr nonnull @_ZN7Iex_3_27TypeExcD1Ev) #16
          to label %unreachable unwind label %lpad

lpad:                                             ; preds = %invoke.cont16, %invoke.cont11, %invoke.cont8, %invoke.cont6, %invoke.cont4, %invoke.cont, %do.body
  %2 = landingpad { ptr, i32 }
          cleanup
  br label %ehcleanup

lpad15:                                           ; preds = %invoke.cont13
  %3 = landingpad { ptr, i32 }
          cleanup
  call void @__cxa_free_exception(ptr %exception) #15
  br label %ehcleanup

ehcleanup:                                        ; preds = %lpad15, %lpad
  %.pn = phi { ptr, i32 } [ %2, %lpad ], [ %3, %lpad15 ]
  call void @_ZNSt7__cxx1118basic_stringstreamIcSt11char_traitsIcESaIcEED1Ev(ptr noundef nonnull align 8 dereferenceable(128) %_iex_throw_s) #15
  resume { ptr, i32 } %.pn

if.end:                                           ; preds = %land.rhs.i.i, %_ZStneIcSt11char_traitsIcESaIcEEbRKNSt7__cxx1112basic_stringIT_T0_T1_EESA_.exit
  %_dataSize = getelementptr inbounds i8, ptr %0, i64 40
  %4 = load i64, ptr %_dataSize, align 8
  %call.i = tail call noalias noundef nonnull ptr @_Znam(i64 noundef %4) #17
  %_data.i = getelementptr inbounds i8, ptr %this, i64 56
  %5 = load ptr, ptr %_data.i, align 8
  %isnull.i = icmp eq ptr %5, null
  br i1 %isnull.i, label %_ZN7Imf_3_25ArrayIcE11resizeEraseEl.exit, label %delete.notnull.i

delete.notnull.i:                                 ; preds = %if.end
  tail call void @_ZdaPv(ptr noundef nonnull %5) #18
  br label %_ZN7Imf_3_25ArrayIcE11resizeEraseEl.exit

_ZN7Imf_3_25ArrayIcE11resizeEraseEl.exit:         ; preds = %if.end, %delete.notnull.i
  %_data = getelementptr inbounds i8, ptr %this, i64 48
  store i64 %4, ptr %_data, align 8
  store ptr %call.i, ptr %_data.i, align 8
  %6 = load i64, ptr %_dataSize, align 8
  %_dataSize18 = getelementptr inbounds i8, ptr %this, i64 40
  store i64 %6, ptr %_dataSize18, align 8
  %_data.i9 = getelementptr inbounds i8, ptr %0, i64 56
  %7 = load ptr, ptr %_data.i9, align 8
  tail call void @llvm.memcpy.p0.p0.i64(ptr nonnull align 1 %call.i, ptr align 1 %7, i64 %6, i1 false)
  ret void

unreachable:                                      ; preds = %invoke.cont16
  unreachable
}